; ModuleID = 'source-C-CXX/42/946.cpp'
source_filename = "source-C-CXX/42/946.cpp"
target datalayout = "e-m:e-p270:32:32-p271:32:32-p272:64:64-i64:64-f80:128-n8:16:32:64-S128"
target triple = "x86_64-pc-linux-gnu"

%"class.std::ios_base::Init" = type { i8 }
%"class.std::basic_istream" = type { i32 (...)**, i64, %"class.std::basic_ios" }
%"class.std::basic_ios" = type { %"class.std::ios_base", %"class.std::basic_ostream"*, i8, i8, %"class.std::basic_streambuf"*, %"class.std::ctype"*, %"class.std::num_put"*, %"class.std::num_get"* }
%"class.std::ios_base" = type { i32 (...)**, i64, i64, i32, i32, i32, %"struct.std::ios_base::_Callback_list"*, %"struct.std::ios_base::_Words", [8 x %"struct.std::ios_base::_Words"], i32, %"struct.std::ios_base::_Words"*, %"class.std::locale" }
%"struct.std::ios_base::_Callback_list" = type { %"struct.std::ios_base::_Callback_list"*, void (i32, %"class.std::ios_base"*, i32)*, i32, i32 }
%"struct.std::ios_base::_Words" = type { i8*, i64 }
%"class.std::locale" = type { %"class.std::locale::_Impl"* }
%"class.std::locale::_Impl" = type { i32, %"class.std::locale::facet"**, i64, %"class.std::locale::facet"**, i8** }
%"class.std::locale::facet" = type <{ i32 (...)**, i32, [4 x i8] }>
%"class.std::basic_ostream" = type { i32 (...)**, %"class.std::basic_ios" }
%"class.std::basic_streambuf" = type { i32 (...)**, i8*, i8*, i8*, i8*, i8*, i8*, %"class.std::locale" }
%"class.std::ctype" = type <{ %"class.std::locale::facet.base", [4 x i8], %struct.__locale_struct*, i8, [7 x i8], i32*, i32*, i16*, i8, [256 x i8], [256 x i8], i8, [6 x i8] }>
%"class.std::locale::facet.base" = type <{ i32 (...)**, i32 }>
%struct.__locale_struct = type { [13 x %struct.__locale_data*], i16*, i32*, i32*, [13 x i8*] }
%struct.__locale_data = type opaque
%"class.std::num_put" = type { %"class.std::locale::facet.base", [4 x i8] }
%"class.std::num_get" = type { %"class.std::locale::facet.base", [4 x i8] }

@_ZStL8__ioinit = internal global %"class.std::ios_base::Init" zeroinitializer, align 1
@__dso_handle = external hidden global i8
@_ZSt3cin = external global %"class.std::basic_istream", align 8
@_ZSt4cout = external global %"class.std::basic_ostream", align 8
@.str = private unnamed_addr constant [2 x i8] c" \00", align 1
@llvm.global_ctors = appending global [1 x { i32, void ()*, i8* }] [{ i32, void ()*, i8* } { i32 65535, void ()* @_GLOBAL__sub_I_946.cpp, i8* null }]

declare void @_ZNSt8ios_base4InitC1Ev(%"class.std::ios_base::Init"* nonnull align 1 dereferenceable(1)) unnamed_addr #0

; Function Attrs: nounwind
declare void @_ZNSt8ios_base4InitD1Ev(%"class.std::ios_base::Init"* nonnull align 1 dereferenceable(1)) unnamed_addr #1

; Function Attrs: nofree nounwind
declare i32 @__cxa_atexit(void (i8*)*, i8*, i8*) local_unnamed_addr #2

; Function Attrs: mustprogress norecurse sspstrong uwtable
define dso_local i32 @main() local_unnamed_addr #3 {
  %1 = alloca [20001 x i32], align 16
  %2 = alloca [10001 x i32], align 16
  %3 = alloca i32, align 4
  %4 = bitcast [20001 x i32]* %1 to i8*
  call void @llvm.lifetime.start.p0i8(i64 80004, i8* nonnull %4) #8
  call void @llvm.memset.p0i8.i64(i8* noundef nonnull align 16 dereferenceable(80004) %4, i8 0, i64 80004, i1 false)
  %5 = bitcast [10001 x i32]* %2 to i8*
  call void @llvm.lifetime.start.p0i8(i64 40004, i8* nonnull %5) #8
  call void @llvm.memset.p0i8.i64(i8* noundef nonnull align 16 dereferenceable(40004) %5, i8 0, i64 40004, i1 false)
  %6 = bitcast i32* %3 to i8*
  call void @llvm.lifetime.start.p0i8(i64 4, i8* nonnull %6) #8
  %7 = call nonnull align 8 dereferenceable(16) %"class.std::basic_istream"* @_ZNSirsERi(%"class.std::basic_istream"* nonnull align 8 dereferenceable(16) @_ZSt3cin, i32* nonnull align 4 dereferenceable(4) %3)
  br label %8

8:                                                ; preds = %105, %0
  %9 = phi i64 [ 2, %0 ], [ %106, %105 ]
  %10 = getelementptr inbounds [20001 x i32], [20001 x i32]* %1, i64 0, i64 %9
  %11 = load i32, i32* %10, align 8, !tbaa !5
  %12 = icmp eq i32 %11, 0
  br i1 %12, label %13, label %18

13:                                               ; preds = %8, %13
  %14 = phi i64 [ %15, %13 ], [ %9, %8 ]
  %15 = add nuw nsw i64 %14, %9
  %16 = getelementptr inbounds [20001 x i32], [20001 x i32]* %1, i64 0, i64 %15
  store i32 1, i32* %16, align 8, !tbaa !5
  %17 = icmp ult i64 %15, 10001
  br i1 %17, label %13, label %18, !llvm.loop !9

18:                                               ; preds = %13, %8
  %19 = or i64 %9, 1
  %20 = icmp eq i64 %19, 10001
  br i1 %20, label %26, label %96, !llvm.loop !11

21:                                               ; preds = %112
  %22 = icmp slt i32 %113, 1
  br i1 %22, label %95, label %23

23:                                               ; preds = %21
  %24 = add nuw i32 %113, 1
  %25 = zext i32 %24 to i64
  br label %43

26:                                               ; preds = %18, %112
  %27 = phi i64 [ %114, %112 ], [ 3, %18 ]
  %28 = phi i32 [ %113, %112 ], [ 0, %18 ]
  %29 = getelementptr inbounds [20001 x i32], [20001 x i32]* %1, i64 0, i64 %27
  %30 = load i32, i32* %29, align 4, !tbaa !5
  %31 = icmp eq i32 %30, 0
  br i1 %31, label %32, label %37

32:                                               ; preds = %26
  %33 = add nsw i32 %28, 1
  %34 = sext i32 %33 to i64
  %35 = getelementptr inbounds [10001 x i32], [10001 x i32]* %2, i64 0, i64 %34
  %36 = trunc i64 %27 to i32
  store i32 %36, i32* %35, align 4, !tbaa !5
  br label %37

37:                                               ; preds = %26, %32
  %38 = phi i32 [ %33, %32 ], [ %28, %26 ]
  %39 = add nuw nsw i64 %27, 1
  %40 = getelementptr inbounds [20001 x i32], [20001 x i32]* %1, i64 0, i64 %39
  %41 = load i32, i32* %40, align 4, !tbaa !5
  %42 = icmp eq i32 %41, 0
  br i1 %42, label %107, label %112

43:                                               ; preds = %92, %23
  %44 = phi i64 [ 1, %23 ], [ %93, %92 ]
  %45 = getelementptr inbounds [10001 x i32], [10001 x i32]* %2, i64 0, i64 %44
  %46 = load i32, i32* %45, align 4, !tbaa !5
  br label %47

47:                                               ; preds = %89, %43
  %48 = phi i32 [ %46, %43 ], [ %91, %89 ]
  %49 = phi i64 [ %44, %43 ], [ %87, %89 ]
  %50 = add nsw i32 %48, %46
  %51 = load i32, i32* %3, align 4, !tbaa !5
  %52 = icmp eq i32 %50, %51
  br i1 %52, label %53, label %86

53:                                               ; preds = %47
  %54 = call nonnull align 8 dereferenceable(8) %"class.std::basic_ostream"* @_ZNSolsEi(%"class.std::basic_ostream"* nonnull align 8 dereferenceable(8) @_ZSt4cout, i32 %46)
  %55 = call nonnull align 8 dereferenceable(8) %"class.std::basic_ostream"* @_ZSt16__ostream_insertIcSt11char_traitsIcEERSt13basic_ostreamIT_T0_ES6_PKS3_l(%"class.std::basic_ostream"* nonnull align 8 dereferenceable(8) %54, i8* nonnull getelementptr inbounds ([2 x i8], [2 x i8]* @.str, i64 0, i64 0), i64 1)
  %56 = call nonnull align 8 dereferenceable(8) %"class.std::basic_ostream"* @_ZNSolsEi(%"class.std::basic_ostream"* nonnull align 8 dereferenceable(8) %54, i32 %48)
  %57 = bitcast %"class.std::basic_ostream"* %56 to i8**
  %58 = load i8*, i8** %57, align 8, !tbaa !12
  %59 = getelementptr i8, i8* %58, i64 -24
  %60 = bitcast i8* %59 to i64*
  %61 = load i64, i64* %60, align 8
  %62 = bitcast %"class.std::basic_ostream"* %56 to i8*
  %63 = add nsw i64 %61, 240
  %64 = getelementptr inbounds i8, i8* %62, i64 %63
  %65 = bitcast i8* %64 to %"class.std::ctype"**
  %66 = load %"class.std::ctype"*, %"class.std::ctype"** %65, align 8, !tbaa !14
  %67 = icmp eq %"class.std::ctype"* %66, null
  br i1 %67, label %68, label %69

68:                                               ; preds = %53
  call void @_ZSt16__throw_bad_castv() #9
  unreachable

69:                                               ; preds = %53
  %70 = getelementptr inbounds %"class.std::ctype", %"class.std::ctype"* %66, i64 0, i32 8
  %71 = load i8, i8* %70, align 8, !tbaa !18
  %72 = icmp eq i8 %71, 0
  br i1 %72, label %76, label %73

73:                                               ; preds = %69
  %74 = getelementptr inbounds %"class.std::ctype", %"class.std::ctype"* %66, i64 0, i32 9, i64 10
  %75 = load i8, i8* %74, align 1, !tbaa !20
  br label %82

76:                                               ; preds = %69
  call void @_ZNKSt5ctypeIcE13_M_widen_initEv(%"class.std::ctype"* nonnull align 8 dereferenceable(570) %66)
  %77 = bitcast %"class.std::ctype"* %66 to i8 (%"class.std::ctype"*, i8)***
  %78 = load i8 (%"class.std::ctype"*, i8)**, i8 (%"class.std::ctype"*, i8)*** %77, align 8, !tbaa !12
  %79 = getelementptr inbounds i8 (%"class.std::ctype"*, i8)*, i8 (%"class.std::ctype"*, i8)** %78, i64 6
  %80 = load i8 (%"class.std::ctype"*, i8)*, i8 (%"class.std::ctype"*, i8)** %79, align 8
  %81 = call signext i8 %80(%"class.std::ctype"* nonnull align 8 dereferenceable(570) %66, i8 signext 10)
  br label %82

82:                                               ; preds = %73, %76
  %83 = phi i8 [ %75, %73 ], [ %81, %76 ]
  %84 = call nonnull align 8 dereferenceable(8) %"class.std::basic_ostream"* @_ZNSo3putEc(%"class.std::basic_ostream"* nonnull align 8 dereferenceable(8) %56, i8 signext %83)
  %85 = call nonnull align 8 dereferenceable(8) %"class.std::basic_ostream"* @_ZNSo5flushEv(%"class.std::basic_ostream"* nonnull align 8 dereferenceable(8) %84)
  br label %86

86:                                               ; preds = %47, %82
  %87 = add nuw nsw i64 %49, 1
  %88 = icmp eq i64 %87, %25
  br i1 %88, label %92, label %89, !llvm.loop !21

89:                                               ; preds = %86
  %90 = getelementptr inbounds [10001 x i32], [10001 x i32]* %2, i64 0, i64 %87
  %91 = load i32, i32* %90, align 4, !tbaa !5
  br label %47

92:                                               ; preds = %86
  %93 = add nuw nsw i64 %44, 1
  %94 = icmp eq i64 %93, %25
  br i1 %94, label %95, label %43, !llvm.loop !22

95:                                               ; preds = %92, %21
  call void @llvm.lifetime.end.p0i8(i64 4, i8* nonnull %6) #8
  call void @llvm.lifetime.end.p0i8(i64 40004, i8* nonnull %5) #8
  call void @llvm.lifetime.end.p0i8(i64 80004, i8* nonnull %4) #8
  ret i32 0

96:                                               ; preds = %18
  %97 = getelementptr inbounds [20001 x i32], [20001 x i32]* %1, i64 0, i64 %19
  %98 = load i32, i32* %97, align 4, !tbaa !5
  %99 = icmp eq i32 %98, 0
  br i1 %99, label %100, label %105

100:                                              ; preds = %96, %100
  %101 = phi i64 [ %102, %100 ], [ %19, %96 ]
  %102 = add nuw nsw i64 %101, %19
  %103 = getelementptr inbounds [20001 x i32], [20001 x i32]* %1, i64 0, i64 %102
  store i32 1, i32* %103, align 4, !tbaa !5
  %104 = icmp ult i64 %102, 10001
  br i1 %104, label %100, label %105, !llvm.loop !9

105:                                              ; preds = %100, %96
  %106 = add nuw nsw i64 %9, 2
  br label %8

107:                                              ; preds = %37
  %108 = add nsw i32 %38, 1
  %109 = sext i32 %108 to i64
  %110 = getelementptr inbounds [10001 x i32], [10001 x i32]* %2, i64 0, i64 %109
  %111 = trunc i64 %39 to i32
  store i32 %111, i32* %110, align 4, !tbaa !5
  br label %112

112:                                              ; preds = %107, %37
  %113 = phi i32 [ %108, %107 ], [ %38, %37 ]
  %114 = add nuw nsw i64 %27, 2
  %115 = icmp eq i64 %114, 10001
  br i1 %115, label %21, label %26, !llvm.loop !23
}

; Function Attrs: argmemonly mustprogress nofree nosync nounwind willreturn
declare void @llvm.lifetime.start.p0i8(i64 immarg, i8* nocapture) #4

; Function Attrs: argmemonly mustprogress nofree nounwind willreturn writeonly
declare void @llvm.memset.p0i8.i64(i8* nocapture writeonly, i8, i64, i1 immarg) #5

declare nonnull align 8 dereferenceable(16) %"class.std::basic_istream"* @_ZNSirsERi(%"class.std::basic_istream"* nonnull align 8 dereferenceable(16), i32* nonnull align 4 dereferenceable(4)) local_unnamed_addr #0

declare nonnull align 8 dereferenceable(8) %"class.std::basic_ostream"* @_ZNSolsEi(%"class.std::basic_ostream"* nonnull align 8 dereferenceable(8), i32) local_unnamed_addr #0

; Function Attrs: argmemonly mustprogress nofree nosync nounwind willreturn
declare void @llvm.lifetime.end.p0i8(i64 immarg, i8* nocapture) #4

declare nonnull align 8 dereferenceable(8) %"class.std::basic_ostream"* @_ZSt16__ostream_insertIcSt11char_traitsIcEERSt13basic_ostreamIT_T0_ES6_PKS3_l(%"class.std::basic_ostream"* nonnull align 8 dereferenceable(8), i8*, i64) local_unnamed_addr #0

declare nonnull align 8 dereferenceable(8) %"class.std::basic_ostream"* @_ZNSo3putEc(%"class.std::basic_ostream"* nonnull align 8 dereferenceable(8), i8 signext) local_unnamed_addr #0

declare nonnull align 8 dereferenceable(8) %"class.std::basic_ostream"* @_ZNSo5flushEv(%"class.std::basic_ostream"* nonnull align 8 dereferenceable(8)) local_unnamed_addr #0

; Function Attrs: noreturn
declare void @_ZSt16__throw_bad_castv() local_unnamed_addr #6

declare void @_ZNKSt5ctypeIcE13_M_widen_initEv(%"class.std::ctype"* nonnull align 8 dereferenceable(570)) local_unnamed_addr #0

; Function Attrs: sspstrong uwtable
define internal void @_GLOBAL__sub_I_946.cpp() #7 section ".text.startup" {
  tail call void @_ZNSt8ios_base4InitC1Ev(%"class.std::ios_base::Init"* nonnull align 1 dereferenceable(1) @_ZStL8__ioinit)
  %1 = tail call i32 @__cxa_atexit(void (i8*)* bitcast (void (%"class.std::ios_base::Init"*)* @_ZNSt8ios_base4InitD1Ev to void (i8*)*), i8* getelementptr inbounds (%"class.std::ios_base::Init", %"class.std::ios_base::Init"* @_ZStL8__ioinit, i64 0, i32 0), i8* nonnull @__dso_handle) #8
  ret void
}


!llvm.module.flags = !{!0, !1, !2, !3}
!llvm.ident = !{!4}

!0 = !{i32 1, !"wchar_size", i32 4}
!1 = !{i32 7, !"PIC Level", i32 2}
!2 = !{i32 7, !"PIE Level", i32 2}
!3 = !{i32 7, !"uwtable", i32 1}
!4 = !{!"clang version 13.0.0"}
!5 = !{!6, !6, i64 0}
!6 = !{!"int", !7, i64 0}
!7 = !{!"omnipotent char", !8, i64 0}
!8 = !{!"Simple C++ TBAA"}
!9 = distinct !{!9, !10}
!10 = !{!"llvm.loop.mustprogress"}
!11 = distinct !{!11, !10}
!12 = !{!13, !13, i64 0}
!13 = !{!"vtable pointer", !8, i64 0}
!14 = !{!15, !16, i64 240}
!15 = !{!"_ZTSSt9basic_iosIcSt11char_traitsIcEE", !16, i64 216, !7, i64 224, !17, i64 225, !16, i64 232, !16, i64 240, !16, i64 248, !16, i64 256}
!16 = !{!"any pointer", !7, i64 0}
!17 = !{!"bool", !7, i64 0}
!18 = !{!19, !7, i64 56}
!19 = !{!"_ZTSSt5ctypeIcE", !16, i64 16, !17, i64 24, !16, i64 32, !16, i64 40, !16, i64 48, !7, i64 56, !7, i64 57, !7, i64 313, !7, i64 569}
!20 = !{!7, !7, i64 0}
!21 = distinct !{!21, !10}
!22 = distinct !{!22, !10}
!23 = distinct !{!23, !10}
